; ModuleID = '29/469.c'
source_filename = "29/469.c"
target datalayout = "e-m:e-p270:32:32-p271:32:32-p272:64:64-i64:64-f80:128-n8:16:32:64-S128"
target triple = "x86_64-pc-linux-gnu"

@.str = private unnamed_addr constant [3 x i8] c"%d\00", align 1
@.str.1 = private unnamed_addr constant [7 x i8] c"%.3lf\0A\00", align 1

; Function Attrs: noinline nounwind uwtable
define dso_local i32 @main() #0 {
  %1 = alloca i32, align 4
  %2 = alloca i32, align 4
  %3 = alloca [100 x i32], align 16
  %4 = alloca double, align 8
  %5 = alloca double, align 8
  %6 = alloca double, align 8
  %7 = alloca double, align 8
  %8 = alloca i32, align 4
  %9 = alloca i32, align 4
  %10 = alloca i32, align 4
  store i32 0, i32* %1, align 4
  store double 0.000000e+00, double* %4, align 8
  store double 2.000000e+00, double* %5, align 8
  store double 1.000000e+00, double* %6, align 8
  %11 = call i32 (i8*, ...) @__isoc99_scanf(i8* getelementptr inbounds ([3 x i8], [3 x i8]* @.str, i64 0, i64 0), i32* %2)
  store i32 0, i32* %8, align 4
  br label %12

12:                                               ; preds = %21, %0
  %13 = load i32, i32* %8, align 4
  %14 = load i32, i32* %2, align 4
  %15 = icmp slt i32 %13, %14
  br i1 %15, label %16, label %24

16:                                               ; preds = %12
  %17 = load i32, i32* %8, align 4
  %18 = sext i32 %17 to i64
  %19 = getelementptr inbounds [100 x i32], [100 x i32]* %3, i64 0, i64 %18
  %20 = call i32 (i8*, ...) @__isoc99_scanf(i8* getelementptr inbounds ([3 x i8], [3 x i8]* @.str, i64 0, i64 0), i32* %19)
  br label %21

21:                                               ; preds = %16
  %22 = load i32, i32* %8, align 4
  %23 = add nsw i32 %22, 1
  store i32 %23, i32* %8, align 4
  br label %12

24:                                               ; preds = %12
  store i32 0, i32* %9, align 4
  br label %25

25:                                               ; preds = %54, %24
  %26 = load i32, i32* %9, align 4
  %27 = load i32, i32* %2, align 4
  %28 = icmp slt i32 %26, %27
  br i1 %28, label %29, label %57

29:                                               ; preds = %25
  store i32 0, i32* %10, align 4
  br label %30

30:                                               ; preds = %48, %29
  %31 = load i32, i32* %10, align 4
  %32 = load i32, i32* %9, align 4
  %33 = sext i32 %32 to i64
  %34 = getelementptr inbounds [100 x i32], [100 x i32]* %3, i64 0, i64 %33
  %35 = load i32, i32* %34, align 4
  %36 = icmp slt i32 %31, %35
  br i1 %36, label %37, label %51

37:                                               ; preds = %30
  %38 = load double, double* %4, align 8
  %39 = load double, double* %5, align 8
  %40 = load double, double* %6, align 8
  %41 = fdiv double %39, %40
  %42 = fadd double %38, %41
  store double %42, double* %4, align 8
  %43 = load double, double* %5, align 8
  store double %43, double* %7, align 8
  %44 = load double, double* %6, align 8
  %45 = load double, double* %7, align 8
  %46 = fadd double %44, %45
  store double %46, double* %5, align 8
  %47 = load double, double* %7, align 8
  store double %47, double* %6, align 8
  br label %48

48:                                               ; preds = %37
  %49 = load i32, i32* %10, align 4
  %50 = add nsw i32 %49, 1
  store i32 %50, i32* %10, align 4
  br label %30

51:                                               ; preds = %30
  store double 2.000000e+00, double* %5, align 8
  store double 1.000000e+00, double* %6, align 8
  %52 = load double, double* %4, align 8
  %53 = call i32 (i8*, ...) @printf(i8* getelementptr inbounds ([7 x i8], [7 x i8]* @.str.1, i64 0, i64 0), double %52)
  store double 0.000000e+00, double* %4, align 8
  br label %54

54:                                               ; preds = %51
  %55 = load i32, i32* %9, align 4
  %56 = add nsw i32 %55, 1
  store i32 %56, i32* %9, align 4
  br label %25

57:                                               ; preds = %25
  ret i32 0
}

declare dso_local i32 @__isoc99_scanf(i8*, ...) #1

declare dso_local i32 @printf(i8*, ...) #1


!llvm.module.flags = !{!0}
!llvm.ident = !{!1}

!0 = !{i32 1, !"wchar_size", i32 4}
!1 = !{!"clang version 10.0.0-4ubuntu1 "}
